; Function Attrs: mustprogress nounwind uwtable
define dso_local void @_ZN14b3PrefixScanCLD0Ev(ptr noundef nonnull align 8 dereferenceable(48) %this) unnamed_addr #3 align 2 personality ptr @__gxx_personality_v0 {
entry:
  store ptr getelementptr inbounds ({ [4 x ptr] }, ptr @_ZTV14b3PrefixScanCL, i64 0, i32 0, i64 2), ptr %this, align 8
  %m_workBuffer.i = getelementptr inbounds i8, ptr %this, i64 40
  %0 = load ptr, ptr %m_workBuffer.i, align 8
  %isnull.i = icmp eq ptr %0, null
  br i1 %isnull.i, label %delete.end.i, label %delete.notnull.i

delete.notnull.i:                                 ; preds = %entry
  %vtable.i = load ptr, ptr %0, align 8
  %vfn.i = getelementptr inbounds i8, ptr %vtable.i, i64 8
  %1 = load ptr, ptr %vfn.i, align 8
  tail call void %1(ptr noundef nonnull align 8 dereferenceable(50) %0) #15
  br label %delete.end.i

delete.end.i:                                     ; preds = %delete.notnull.i, %entry
  %2 = load ptr, ptr @__clewReleaseKernel, align 8
  %m_localScanKernel.i = getelementptr inbounds i8, ptr %this, i64 16
  %3 = load ptr, ptr %m_localScanKernel.i, align 8
  %call.i = invoke i32 %2(ptr noundef %3)
          to label %invoke.cont.i unwind label %terminate.lpad.i

invoke.cont.i:                                    ; preds = %delete.end.i
  %4 = load ptr, ptr @__clewReleaseKernel, align 8
  %m_blockSumKernel.i = getelementptr inbounds i8, ptr %this, i64 24
  %5 = load ptr, ptr %m_blockSumKernel.i, align 8
  %call3.i = invoke i32 %4(ptr noundef %5)
          to label %invoke.cont2.i unwind label %terminate.lpad.i

invoke.cont2.i:                                   ; preds = %invoke.cont.i
  %6 = load ptr, ptr @__clewReleaseKernel, align 8
  %m_propagationKernel.i = getelementptr inbounds i8, ptr %this, i64 32
  %7 = load ptr, ptr %m_propagationKernel.i, align 8
  %call5.i = invoke i32 %6(ptr noundef %7)
          to label %_ZN14b3PrefixScanCLD2Ev.exit unwind label %terminate.lpad.i

terminate.lpad.i:                                 ; preds = %invoke.cont2.i, %invoke.cont.i, %delete.end.i
  %8 = landingpad { ptr, i32 }
          catch ptr null
  %9 = extractvalue { ptr, i32 } %8, 0
  tail call void @__clang_call_terminate(ptr %9) #16
  unreachable

_ZN14b3PrefixScanCLD2Ev.exit:                     ; preds = %invoke.cont2.i
  tail call void @_ZdlPv(ptr noundef nonnull %this) #14
  ret void
}